target datalayout = "e-m:e-p270:32:32-p271:32:32-p272:64:64-i64:64-i128:128-f80:128-n8:16:32:64-S128"
target triple = "x86_64-pc-linux-gnu"

%struct.__storeu_pd = type { <2 x double> }

; Function Attrs: alwaysinline nounwind sspstrong uwtable
define internal void @_mm_storeu_pd(ptr noundef %0, <2 x double> noundef %1) #2 {
  %3 = alloca ptr, align 8
  %4 = alloca <2 x double>, align 16
  store ptr %0, ptr %3, align 8, !tbaa !10
  store <2 x double> %1, ptr %4, align 16, !tbaa !12
  %5 = load <2 x double>, ptr %4, align 16, !tbaa !12
  %6 = load ptr, ptr %3, align 8, !tbaa !10
  %7 = getelementptr inbounds nuw %struct.__storeu_pd, ptr %6, i32 0, i32 0
  store <2 x double> %5, ptr %7, align 1, !tbaa !12
  ret void
}

; Function Attrs: alwaysinline nounwind sspstrong uwtable
define internal <2 x double> @_mm_add_pd(<2 x double> noundef %0, <2 x double> noundef %1) #2 {
  %3 = alloca <2 x double>, align 16
  %4 = alloca <2 x double>, align 16
  store <2 x double> %0, ptr %3, align 16, !tbaa !12
  store <2 x double> %1, ptr %4, align 16, !tbaa !12
  %5 = load <2 x double>, ptr %3, align 16, !tbaa !12
  %6 = load <2 x double>, ptr %4, align 16, !tbaa !12
  %7 = fadd reassoc nsz arcp <2 x double> %5, %6
  ret <2 x double> %7
}

; Function Attrs: alwaysinline nounwind sspstrong uwtable
define internal <2 x double> @_mm_mul_pd(<2 x double> noundef %0, <2 x double> noundef %1) #2 {
  %3 = alloca <2 x double>, align 16
  %4 = alloca <2 x double>, align 16
  store <2 x double> %0, ptr %3, align 16, !tbaa !12
  store <2 x double> %1, ptr %4, align 16, !tbaa !12
  %5 = load <2 x double>, ptr %3, align 16, !tbaa !12
  %6 = load <2 x double>, ptr %4, align 16, !tbaa !12
  %7 = fmul reassoc nsz arcp <2 x double> %5, %6
  ret <2 x double> %7
}

; Function Attrs: alwaysinline nounwind sspstrong uwtable
define internal <2 x double> @_mm_set1_pd(double noundef %0) #2 {
  %2 = alloca double, align 8
  %3 = alloca <2 x double>, align 16
  store double %0, ptr %2, align 8, !tbaa !17
  %4 = load double, ptr %2, align 8, !tbaa !17
  %5 = insertelement <2 x double> poison, double %4, i32 0
  %6 = load double, ptr %2, align 8, !tbaa !17
  %7 = insertelement <2 x double> %5, double %6, i32 1
  store <2 x double> %7, ptr %3, align 16, !tbaa !12
  %8 = load <2 x double>, ptr %3, align 16, !tbaa !12
  ret <2 x double> %8
}

; Function Attrs: alwaysinline nounwind sspstrong uwtable
define internal <2 x double> @_mm_setzero_pd() #2 {
  %1 = alloca <2 x double>, align 16
  store <2 x double> zeroinitializer, ptr %1, align 16, !tbaa !12
  %2 = load <2 x double>, ptr %1, align 16, !tbaa !12
  ret <2 x double> %2
}

; Function Attrs: nounwind sspstrong uwtable
define hidden void @FLAC__lpc_compute_autocorrelation_intrin_sse2_lag_14(ptr noundef %0, i32 noundef %1, i32 noundef %2, ptr noundef %3) #0 {
  %5 = alloca ptr, align 8
  %6 = alloca i32, align 4
  %7 = alloca i32, align 4
  %8 = alloca ptr, align 8
  %9 = alloca i32, align 4
  %10 = alloca <2 x double>, align 16
  %11 = alloca <2 x double>, align 16
  %12 = alloca <2 x double>, align 16
  %13 = alloca <2 x double>, align 16
  %14 = alloca <2 x double>, align 16
  %15 = alloca <2 x double>, align 16
  %16 = alloca <2 x double>, align 16
  %17 = alloca <2 x double>, align 16
  %18 = alloca <2 x double>, align 16
  %19 = alloca <2 x double>, align 16
  %20 = alloca <2 x double>, align 16
  %21 = alloca <2 x double>, align 16
  %22 = alloca <2 x double>, align 16
  %23 = alloca <2 x double>, align 16
  %24 = alloca <2 x double>, align 16
  store ptr %0, ptr %5, align 8, !tbaa !3
  store i32 %1, ptr %6, align 4, !tbaa !8
  store i32 %2, ptr %7, align 4, !tbaa !8
  store ptr %3, ptr %8, align 8, !tbaa !10
  call void @llvm.lifetime.start.p0(i64 4, ptr %9) #4
  call void @llvm.lifetime.start.p0(i64 16, ptr %10) #4
  call void @llvm.lifetime.start.p0(i64 16, ptr %11) #4
  call void @llvm.lifetime.start.p0(i64 16, ptr %12) #4
  call void @llvm.lifetime.start.p0(i64 16, ptr %13) #4
  call void @llvm.lifetime.start.p0(i64 16, ptr %14) #4
  call void @llvm.lifetime.start.p0(i64 16, ptr %15) #4
  call void @llvm.lifetime.start.p0(i64 16, ptr %16) #4
  call void @llvm.lifetime.start.p0(i64 16, ptr %17) #4
  call void @llvm.lifetime.start.p0(i64 16, ptr %18) #4
  call void @llvm.lifetime.start.p0(i64 16, ptr %19) #4
  call void @llvm.lifetime.start.p0(i64 16, ptr %20) #4
  call void @llvm.lifetime.start.p0(i64 16, ptr %21) #4
  call void @llvm.lifetime.start.p0(i64 16, ptr %22) #4
  call void @llvm.lifetime.start.p0(i64 16, ptr %23) #4
  %25 = call reassoc nsz arcp <2 x double> @_mm_setzero_pd()
  store <2 x double> %25, ptr %10, align 16, !tbaa !12
  %26 = call reassoc nsz arcp <2 x double> @_mm_setzero_pd()
  store <2 x double> %26, ptr %11, align 16, !tbaa !12
  %27 = call reassoc nsz arcp <2 x double> @_mm_setzero_pd()
  store <2 x double> %27, ptr %12, align 16, !tbaa !12
  %28 = call reassoc nsz arcp <2 x double> @_mm_setzero_pd()
  store <2 x double> %28, ptr %13, align 16, !tbaa !12
  %29 = call reassoc nsz arcp <2 x double> @_mm_setzero_pd()
  store <2 x double> %29, ptr %14, align 16, !tbaa !12
  %30 = call reassoc nsz arcp <2 x double> @_mm_setzero_pd()
  store <2 x double> %30, ptr %15, align 16, !tbaa !12
  %31 = call reassoc nsz arcp <2 x double> @_mm_setzero_pd()
  store <2 x double> %31, ptr %16, align 16, !tbaa !12
  %32 = call reassoc nsz arcp <2 x double> @_mm_setzero_pd()
  store <2 x double> %32, ptr %17, align 16, !tbaa !12
  %33 = call reassoc nsz arcp <2 x double> @_mm_setzero_pd()
  store <2 x double> %33, ptr %19, align 16, !tbaa !12
  %34 = call reassoc nsz arcp <2 x double> @_mm_setzero_pd()
  store <2 x double> %34, ptr %18, align 16, !tbaa !12
  %35 = call reassoc nsz arcp <2 x double> @_mm_setzero_pd()
  store <2 x double> %35, ptr %22, align 16, !tbaa !12
  %36 = call reassoc nsz arcp <2 x double> @_mm_setzero_pd()
  store <2 x double> %36, ptr %23, align 16, !tbaa !12
  %37 = call reassoc nsz arcp <2 x double> @_mm_setzero_pd()
  store <2 x double> %37, ptr %20, align 16, !tbaa !12
  %38 = call reassoc nsz arcp <2 x double> @_mm_setzero_pd()
  store <2 x double> %38, ptr %21, align 16, !tbaa !12
  %39 = load i32, ptr %6, align 4, !tbaa !8
  %40 = sub i32 %39, 1
  store i32 %40, ptr %9, align 4, !tbaa !8
  br label %41

41:                                               ; preds = %108, %4
  %42 = load i32, ptr %9, align 4, !tbaa !8
  %43 = icmp sge i32 %42, 0
  br i1 %43, label %44, label %111

44:                                               ; preds = %41
  call void @llvm.lifetime.start.p0(i64 16, ptr %24) #4
  %45 = load ptr, ptr %5, align 8, !tbaa !3
  %46 = load i32, ptr %9, align 4, !tbaa !8
  %47 = sext i32 %46 to i64
  %48 = getelementptr inbounds float, ptr %45, i64 %47
  %49 = load float, ptr %48, align 4, !tbaa !13
  %50 = fpext reassoc nsz arcp float %49 to double
  %51 = call reassoc nsz arcp <2 x double> @_mm_set1_pd(double noundef %50)
  store <2 x double> %51, ptr %24, align 16, !tbaa !12
  %52 = load <2 x double>, ptr %20, align 16, !tbaa !12
  %53 = load <2 x double>, ptr %21, align 16, !tbaa !12
  %54 = shufflevector <2 x double> %52, <2 x double> %53, <2 x i32> <i32 1, i32 2>
  store <2 x double> %54, ptr %21, align 16, !tbaa !12
  %55 = load <2 x double>, ptr %18, align 16, !tbaa !12
  %56 = load <2 x double>, ptr %20, align 16, !tbaa !12
  %57 = shufflevector <2 x double> %55, <2 x double> %56, <2 x i32> <i32 1, i32 2>
  store <2 x double> %57, ptr %20, align 16, !tbaa !12
  %58 = load <2 x double>, ptr %17, align 16, !tbaa !12
  %59 = load <2 x double>, ptr %18, align 16, !tbaa !12
  %60 = shufflevector <2 x double> %58, <2 x double> %59, <2 x i32> <i32 1, i32 2>
  store <2 x double> %60, ptr %18, align 16, !tbaa !12
  %61 = load <2 x double>, ptr %16, align 16, !tbaa !12
  %62 = load <2 x double>, ptr %17, align 16, !tbaa !12
  %63 = shufflevector <2 x double> %61, <2 x double> %62, <2 x i32> <i32 1, i32 2>
  store <2 x double> %63, ptr %17, align 16, !tbaa !12
  %64 = load <2 x double>, ptr %15, align 16, !tbaa !12
  %65 = load <2 x double>, ptr %16, align 16, !tbaa !12
  %66 = shufflevector <2 x double> %64, <2 x double> %65, <2 x i32> <i32 1, i32 2>
  store <2 x double> %66, ptr %16, align 16, !tbaa !12
  %67 = load <2 x double>, ptr %14, align 16, !tbaa !12
  %68 = load <2 x double>, ptr %15, align 16, !tbaa !12
  %69 = shufflevector <2 x double> %67, <2 x double> %68, <2 x i32> <i32 1, i32 2>
  store <2 x double> %69, ptr %15, align 16, !tbaa !12
  %70 = load <2 x double>, ptr %24, align 16, !tbaa !12
  %71 = load <2 x double>, ptr %14, align 16, !tbaa !12
  %72 = shufflevector <2 x double> %70, <2 x double> %71, <2 x i32> <i32 1, i32 2>
  store <2 x double> %72, ptr %14, align 16, !tbaa !12
  %73 = load <2 x double>, ptr %10, align 16, !tbaa !12
  %74 = load <2 x double>, ptr %24, align 16, !tbaa !12
  %75 = load <2 x double>, ptr %14, align 16, !tbaa !12
  %76 = call reassoc nsz arcp <2 x double> @_mm_mul_pd(<2 x double> noundef %74, <2 x double> noundef %75)
  %77 = call reassoc nsz arcp <2 x double> @_mm_add_pd(<2 x double> noundef %73, <2 x double> noundef %76)
  store <2 x double> %77, ptr %10, align 16, !tbaa !12
  %78 = load <2 x double>, ptr %11, align 16, !tbaa !12
  %79 = load <2 x double>, ptr %24, align 16, !tbaa !12
  %80 = load <2 x double>, ptr %15, align 16, !tbaa !12
  %81 = call reassoc nsz arcp <2 x double> @_mm_mul_pd(<2 x double> noundef %79, <2 x double> noundef %80)
  %82 = call reassoc nsz arcp <2 x double> @_mm_add_pd(<2 x double> noundef %78, <2 x double> noundef %81)
  store <2 x double> %82, ptr %11, align 16, !tbaa !12
  %83 = load <2 x double>, ptr %12, align 16, !tbaa !12
  %84 = load <2 x double>, ptr %24, align 16, !tbaa !12
  %85 = load <2 x double>, ptr %16, align 16, !tbaa !12
  %86 = call reassoc nsz arcp <2 x double> @_mm_mul_pd(<2 x double> noundef %84, <2 x double> noundef %85)
  %87 = call reassoc nsz arcp <2 x double> @_mm_add_pd(<2 x double> noundef %83, <2 x double> noundef %86)
  store <2 x double> %87, ptr %12, align 16, !tbaa !12
  %88 = load <2 x double>, ptr %13, align 16, !tbaa !12
  %89 = load <2 x double>, ptr %24, align 16, !tbaa !12
  %90 = load <2 x double>, ptr %17, align 16, !tbaa !12
  %91 = call reassoc nsz arcp <2 x double> @_mm_mul_pd(<2 x double> noundef %89, <2 x double> noundef %90)
  %92 = call reassoc nsz arcp <2 x double> @_mm_add_pd(<2 x double> noundef %88, <2 x double> noundef %91)
  store <2 x double> %92, ptr %13, align 16, !tbaa !12
  %93 = load <2 x double>, ptr %19, align 16, !tbaa !12
  %94 = load <2 x double>, ptr %24, align 16, !tbaa !12
  %95 = load <2 x double>, ptr %18, align 16, !tbaa !12
  %96 = call reassoc nsz arcp <2 x double> @_mm_mul_pd(<2 x double> noundef %94, <2 x double> noundef %95)
  %97 = call reassoc nsz arcp <2 x double> @_mm_add_pd(<2 x double> noundef %93, <2 x double> noundef %96)
  store <2 x double> %97, ptr %19, align 16, !tbaa !12
  %98 = load <2 x double>, ptr %22, align 16, !tbaa !12
  %99 = load <2 x double>, ptr %24, align 16, !tbaa !12
  %100 = load <2 x double>, ptr %20, align 16, !tbaa !12
  %101 = call reassoc nsz arcp <2 x double> @_mm_mul_pd(<2 x double> noundef %99, <2 x double> noundef %100)
  %102 = call reassoc nsz arcp <2 x double> @_mm_add_pd(<2 x double> noundef %98, <2 x double> noundef %101)
  store <2 x double> %102, ptr %22, align 16, !tbaa !12
  %103 = load <2 x double>, ptr %23, align 16, !tbaa !12
  %104 = load <2 x double>, ptr %24, align 16, !tbaa !12
  %105 = load <2 x double>, ptr %21, align 16, !tbaa !12
  %106 = call reassoc nsz arcp <2 x double> @_mm_mul_pd(<2 x double> noundef %104, <2 x double> noundef %105)
  %107 = call reassoc nsz arcp <2 x double> @_mm_add_pd(<2 x double> noundef %103, <2 x double> noundef %106)
  store <2 x double> %107, ptr %23, align 16, !tbaa !12
  call void @llvm.lifetime.end.p0(i64 16, ptr %24) #4
  br label %108

108:                                              ; preds = %44
  %109 = load i32, ptr %9, align 4, !tbaa !8
  %110 = add nsw i32 %109, -1
  store i32 %110, ptr %9, align 4, !tbaa !8
  br label %41, !llvm.loop !20

111:                                              ; preds = %41
  %112 = load ptr, ptr %8, align 8, !tbaa !10
  %113 = load <2 x double>, ptr %10, align 16, !tbaa !12
  call void @_mm_storeu_pd(ptr noundef %112, <2 x double> noundef %113)
  %114 = load ptr, ptr %8, align 8, !tbaa !10
  %115 = getelementptr inbounds double, ptr %114, i64 2
  %116 = load <2 x double>, ptr %11, align 16, !tbaa !12
  call void @_mm_storeu_pd(ptr noundef %115, <2 x double> noundef %116)
  %117 = load ptr, ptr %8, align 8, !tbaa !10
  %118 = getelementptr inbounds double, ptr %117, i64 4
  %119 = load <2 x double>, ptr %12, align 16, !tbaa !12
  call void @_mm_storeu_pd(ptr noundef %118, <2 x double> noundef %119)
  %120 = load ptr, ptr %8, align 8, !tbaa !10
  %121 = getelementptr inbounds double, ptr %120, i64 6
  %122 = load <2 x double>, ptr %13, align 16, !tbaa !12
  call void @_mm_storeu_pd(ptr noundef %121, <2 x double> noundef %122)
  %123 = load ptr, ptr %8, align 8, !tbaa !10
  %124 = getelementptr inbounds double, ptr %123, i64 8
  %125 = load <2 x double>, ptr %19, align 16, !tbaa !12
  call void @_mm_storeu_pd(ptr noundef %124, <2 x double> noundef %125)
  %126 = load ptr, ptr %8, align 8, !tbaa !10
  %127 = getelementptr inbounds double, ptr %126, i64 10
  %128 = load <2 x double>, ptr %22, align 16, !tbaa !12
  call void @_mm_storeu_pd(ptr noundef %127, <2 x double> noundef %128)
  %129 = load ptr, ptr %8, align 8, !tbaa !10
  %130 = getelementptr inbounds double, ptr %129, i64 12
  %131 = load <2 x double>, ptr %23, align 16, !tbaa !12
  call void @_mm_storeu_pd(ptr noundef %130, <2 x double> noundef %131)
  call void @llvm.lifetime.end.p0(i64 16, ptr %23) #4
  call void @llvm.lifetime.end.p0(i64 16, ptr %22) #4
  call void @llvm.lifetime.end.p0(i64 16, ptr %21) #4
  call void @llvm.lifetime.end.p0(i64 16, ptr %20) #4
  call void @llvm.lifetime.end.p0(i64 16, ptr %19) #4
  call void @llvm.lifetime.end.p0(i64 16, ptr %18) #4
  call void @llvm.lifetime.end.p0(i64 16, ptr %17) #4
  call void @llvm.lifetime.end.p0(i64 16, ptr %16) #4
  call void @llvm.lifetime.end.p0(i64 16, ptr %15) #4
  call void @llvm.lifetime.end.p0(i64 16, ptr %14) #4
  call void @llvm.lifetime.end.p0(i64 16, ptr %13) #4
  call void @llvm.lifetime.end.p0(i64 16, ptr %12) #4
  call void @llvm.lifetime.end.p0(i64 16, ptr %11) #4
  call void @llvm.lifetime.end.p0(i64 16, ptr %10) #4
  call void @llvm.lifetime.end.p0(i64 4, ptr %9) #4
  ret void
}