; Function Attrs: nofree norecurse nosync nounwind sspstrong memory(argmem: readwrite) uwtable
define hidden void @FLAC__lpc_compute_autocorrelation_intrin_sse2_lag_14(ptr noundef readonly captures(none) %0, i32 noundef %1, i32 noundef %2, ptr noundef writeonly captures(none) %3) local_unnamed_addr #0 {
  %.067 = add i32 %1, -1
  %5 = icmp sgt i32 %.067, -1
  br i1 %5, label %.lr.ph.preheader, label %._crit_edge

.lr.ph.preheader:                                 ; preds = %4
  %6 = zext nneg i32 %.067 to i64
  br label %.lr.ph

.lr.ph:                                           ; preds = %.lr.ph.preheader, %.lr.ph
  %indvars.iv = phi i64 [ %6, %.lr.ph.preheader ], [ %indvars.iv.next, %.lr.ph ]
  %.05381 = phi <2 x double> [ zeroinitializer, %.lr.ph.preheader ], [ %32, %.lr.ph ]
  %.05480 = phi <2 x double> [ zeroinitializer, %.lr.ph.preheader ], [ %30, %.lr.ph ]
  %.05579 = phi <2 x double> [ zeroinitializer, %.lr.ph.preheader ], [ %12, %.lr.ph ]
  %.05678 = phi <2 x double> [ zeroinitializer, %.lr.ph.preheader ], [ %13, %.lr.ph ]
  %.05777 = phi <2 x double> [ zeroinitializer, %.lr.ph.preheader ], [ %28, %.lr.ph ]
  %.05876 = phi <2 x double> [ zeroinitializer, %.lr.ph.preheader ], [ %14, %.lr.ph ]
  %.05975 = phi <2 x double> [ zeroinitializer, %.lr.ph.preheader ], [ %15, %.lr.ph ]
  %.06074 = phi <2 x double> [ zeroinitializer, %.lr.ph.preheader ], [ %16, %.lr.ph ]
  %.06173 = phi <2 x double> [ zeroinitializer, %.lr.ph.preheader ], [ %17, %.lr.ph ]
  %.06272 = phi <2 x double> [ zeroinitializer, %.lr.ph.preheader ], [ %18, %.lr.ph ]
  %.06371 = phi <2 x double> [ zeroinitializer, %.lr.ph.preheader ], [ %26, %.lr.ph ]
  %.06470 = phi <2 x double> [ zeroinitializer, %.lr.ph.preheader ], [ %24, %.lr.ph ]
  %.06569 = phi <2 x double> [ zeroinitializer, %.lr.ph.preheader ], [ %22, %.lr.ph ]
  %.06668 = phi <2 x double> [ zeroinitializer, %.lr.ph.preheader ], [ %20, %.lr.ph ]
  %7 = getelementptr inbounds nuw float, ptr %0, i64 %indvars.iv
  %8 = load float, ptr %7, align 4, !tbaa !3
  %9 = fpext reassoc nsz arcp float %8 to double
  %10 = insertelement <2 x double> poison, double %9, i64 0
  %11 = shufflevector <2 x double> %10, <2 x double> poison, <2 x i32> zeroinitializer
  %12 = shufflevector <2 x double> %.05678, <2 x double> %.05579, <2 x i32> <i32 1, i32 2>
  %13 = shufflevector <2 x double> %.05876, <2 x double> %.05678, <2 x i32> <i32 1, i32 2>
  %14 = shufflevector <2 x double> %.05975, <2 x double> %.05876, <2 x i32> <i32 1, i32 2>
  %15 = shufflevector <2 x double> %.06074, <2 x double> %.05975, <2 x i32> <i32 1, i32 2>
  %16 = shufflevector <2 x double> %.06173, <2 x double> %.06074, <2 x i32> <i32 1, i32 2>
  %17 = shufflevector <2 x double> %.06272, <2 x double> %.06173, <2 x i32> <i32 1, i32 2>
  %18 = shufflevector <2 x double> %10, <2 x double> %.06272, <2 x i32> <i32 0, i32 2>
  %19 = fmul reassoc nsz arcp <2 x double> %18, %11
  %20 = fadd reassoc nsz arcp <2 x double> %19, %.06668
  %21 = fmul reassoc nsz arcp <2 x double> %11, %17
  %22 = fadd reassoc nsz arcp <2 x double> %21, %.06569
  %23 = fmul reassoc nsz arcp <2 x double> %11, %16
  %24 = fadd reassoc nsz arcp <2 x double> %23, %.06470
  %25 = fmul reassoc nsz arcp <2 x double> %11, %15
  %26 = fadd reassoc nsz arcp <2 x double> %25, %.06371
  %27 = fmul reassoc nsz arcp <2 x double> %11, %14
  %28 = fadd reassoc nsz arcp <2 x double> %27, %.05777
  %29 = fmul reassoc nsz arcp <2 x double> %11, %13
  %30 = fadd reassoc nsz arcp <2 x double> %29, %.05480
  %31 = fmul reassoc nsz arcp <2 x double> %11, %12
  %32 = fadd reassoc nsz arcp <2 x double> %31, %.05381
  %indvars.iv.next = add nsw i64 %indvars.iv, -1
  %.not = icmp eq i64 %indvars.iv, 0
  br i1 %.not, label %._crit_edge, label %.lr.ph, !llvm.loop !11

._crit_edge:                                      ; preds = %.lr.ph, %4
  %.066.lcssa = phi <2 x double> [ zeroinitializer, %4 ], [ %20, %.lr.ph ]
  %.065.lcssa = phi <2 x double> [ zeroinitializer, %4 ], [ %22, %.lr.ph ]
  %.064.lcssa = phi <2 x double> [ zeroinitializer, %4 ], [ %24, %.lr.ph ]
  %.063.lcssa = phi <2 x double> [ zeroinitializer, %4 ], [ %26, %.lr.ph ]
  %.057.lcssa = phi <2 x double> [ zeroinitializer, %4 ], [ %28, %.lr.ph ]
  %.054.lcssa = phi <2 x double> [ zeroinitializer, %4 ], [ %30, %.lr.ph ]
  %.053.lcssa = phi <2 x double> [ zeroinitializer, %4 ], [ %32, %.lr.ph ]
  store <2 x double> %.066.lcssa, ptr %3, align 1, !tbaa !9
  %33 = getelementptr inbounds nuw i8, ptr %3, i64 16
  store <2 x double> %.065.lcssa, ptr %33, align 1, !tbaa !9
  %34 = getelementptr inbounds nuw i8, ptr %3, i64 32
  store <2 x double> %.064.lcssa, ptr %34, align 1, !tbaa !9
  %35 = getelementptr inbounds nuw i8, ptr %3, i64 48
  store <2 x double> %.063.lcssa, ptr %35, align 1, !tbaa !9
  %36 = getelementptr inbounds nuw i8, ptr %3, i64 64
  store <2 x double> %.057.lcssa, ptr %36, align 1, !tbaa !9
  %37 = getelementptr inbounds nuw i8, ptr %3, i64 80
  store <2 x double> %.054.lcssa, ptr %37, align 1, !tbaa !9
  %38 = getelementptr inbounds nuw i8, ptr %3, i64 96
  store <2 x double> %.053.lcssa, ptr %38, align 1, !tbaa !9
  ret void
}